target datalayout = "e-m:e-p270:32:32-p271:32:32-p272:64:64-i64:64-i128:128-f80:128-n8:16:32:64-S128"
target triple = "x86_64-pc-linux-gnu"

%struct.AVFilterContext = type { ptr, ptr, ptr, ptr, ptr, i32, ptr, ptr, i32, ptr, ptr, i32, i32, ptr, ptr, ptr, ptr, i32, ptr, i32, i32 }
%struct.AVFilter = type { ptr, ptr, ptr, ptr, ptr, i32 }
%struct.AVDictionaryEntry = type { ptr, ptr }

@.str.29 = private unnamed_addr constant [21 x i8] c"No such option: %s.\0A\00", align 1

; Function Attrs: nounwind uwtable
define i32 @avfilter_init_str(ptr noundef %0, ptr noundef %1) #0 {
  %3 = alloca ptr, align 8
  %4 = alloca ptr, align 8
  %5 = alloca ptr, align 8
  %6 = alloca ptr, align 8
  %7 = alloca i32, align 4
  store ptr %0, ptr %3, align 8, !tbaa !4
  store ptr %1, ptr %4, align 8, !tbaa !124
  call void @llvm.lifetime.start.p0(i64 8, ptr %5) #11
  store ptr null, ptr %5, align 8, !tbaa !176
  call void @llvm.lifetime.start.p0(i64 8, ptr %6) #11
  call void @llvm.lifetime.start.p0(i64 4, ptr %7) #11
  store i32 0, ptr %7, align 4, !tbaa !19
  %8 = load ptr, ptr %4, align 8, !tbaa !124
  %9 = icmp ne ptr %8, null
  br i1 %9, label %10, label %28

10:                                               ; preds = %2
  %11 = load ptr, ptr %4, align 8, !tbaa !124
  %12 = load i8, ptr %11, align 1, !tbaa !163
  %13 = sext i8 %12 to i32
  %14 = icmp ne i32 %13, 0
  br i1 %14, label %15, label %28

15:                                               ; preds = %10
  %16 = load ptr, ptr %3, align 8, !tbaa !4
  %17 = load ptr, ptr %3, align 8, !tbaa !4
  %18 = getelementptr inbounds nuw %struct.AVFilterContext, ptr %17, i32 0, i32 1
  %19 = load ptr, ptr %18, align 8, !tbaa !110
  %20 = getelementptr inbounds nuw %struct.AVFilter, ptr %19, i32 0, i32 4
  %21 = load ptr, ptr %20, align 8, !tbaa !140
  %22 = load ptr, ptr %4, align 8, !tbaa !124
  %23 = call i32 @ff_filter_opt_parse(ptr noundef %16, ptr noundef %21, ptr noundef %5, ptr noundef %22)
  store i32 %23, ptr %7, align 4, !tbaa !19
  %24 = load i32, ptr %7, align 4, !tbaa !19
  %25 = icmp slt i32 %24, 0
  br i1 %25, label %26, label %27

26:                                               ; preds = %15
  br label %44

27:                                               ; preds = %15
  br label %28

28:                                               ; preds = %27, %10, %2
  %29 = load ptr, ptr %3, align 8, !tbaa !4
  %30 = call i32 @avfilter_init_dict(ptr noundef %29, ptr noundef %5)
  store i32 %30, ptr %7, align 4, !tbaa !19
  %31 = load i32, ptr %7, align 4, !tbaa !19
  %32 = icmp slt i32 %31, 0
  br i1 %32, label %33, label %34

33:                                               ; preds = %28
  br label %44

34:                                               ; preds = %28
  %35 = load ptr, ptr %5, align 8, !tbaa !176
  %36 = call ptr @av_dict_iterate(ptr noundef %35, ptr noundef null)
  store ptr %36, ptr %6, align 8, !tbaa !178
  %37 = icmp ne ptr %36, null
  br i1 %37, label %38, label %43

38:                                               ; preds = %34
  %39 = load ptr, ptr %3, align 8, !tbaa !4
  %40 = load ptr, ptr %6, align 8, !tbaa !178
  %41 = getelementptr inbounds nuw %struct.AVDictionaryEntry, ptr %40, i32 0, i32 0
  %42 = load ptr, ptr %41, align 8, !tbaa !180
  call void (ptr, i32, ptr, ...) @av_log(ptr noundef %39, i32 noundef 16, ptr noundef @.str.29, ptr noundef %42)
  store i32 -1414549496, ptr %7, align 4, !tbaa !19
  br label %44

43:                                               ; preds = %34
  br label %44

44:                                               ; preds = %43, %38, %33, %26
  call void @av_dict_free(ptr noundef %5)
  %45 = load i32, ptr %7, align 4, !tbaa !19
  call void @llvm.lifetime.end.p0(i64 4, ptr %7) #11
  call void @llvm.lifetime.end.p0(i64 8, ptr %6) #11
  call void @llvm.lifetime.end.p0(i64 8, ptr %5) #11
  ret i32 %45
}