; Function Attrs: nounwind uwtable
define range(i32 -2147483648, 1) i32 @avfilter_init_str(ptr noundef %0, ptr noundef %1) local_unnamed_addr #0 {
  %3 = alloca ptr, align 8
  call void @llvm.lifetime.start.p0(i64 8, ptr nonnull %3) #15
  store ptr null, ptr %3, align 8, !tbaa !146
  %.not = icmp eq ptr %1, null
  br i1 %.not, label %13, label %4

4:                                                ; preds = %2
  %5 = load i8, ptr %1, align 1, !tbaa !109
  %.not14 = icmp eq i8 %5, 0
  br i1 %.not14, label %13, label %6

6:                                                ; preds = %4
  %7 = getelementptr inbounds nuw i8, ptr %0, i64 8
  %8 = load ptr, ptr %7, align 8, !tbaa !92
  %9 = getelementptr inbounds nuw i8, ptr %8, i64 32
  %10 = load ptr, ptr %9, align 8, !tbaa !113
  %11 = call i32 @ff_filter_opt_parse(ptr noundef %0, ptr noundef %10, ptr noundef nonnull %3, ptr noundef nonnull %1)
  %12 = icmp slt i32 %11, 0
  br i1 %12, label %21, label %13

13:                                               ; preds = %6, %4, %2
  %14 = call i32 @avfilter_init_dict(ptr noundef %0, ptr noundef nonnull %3)
  %15 = icmp slt i32 %14, 0
  br i1 %15, label %21, label %16

16:                                               ; preds = %13
  %17 = load ptr, ptr %3, align 8, !tbaa !146
  %18 = call ptr @av_dict_iterate(ptr noundef %17, ptr noundef null) #15
  %.not15 = icmp eq ptr %18, null
  br i1 %.not15, label %21, label %19

19:                                               ; preds = %16
  %20 = load ptr, ptr %18, align 8, !tbaa !148
  call void (ptr, i32, ptr, ...) @av_log(ptr noundef %0, i32 noundef 16, ptr noundef nonnull @.str.29, ptr noundef %20) #15
  br label %21

21:                                               ; preds = %16, %13, %6, %19
  %.0 = phi i32 [ %11, %6 ], [ %14, %13 ], [ -1414549496, %19 ], [ 0, %16 ]
  call void @av_dict_free(ptr noundef nonnull %3) #15
  call void @llvm.lifetime.end.p0(i64 8, ptr nonnull %3) #15
  ret i32 %.0
}